target datalayout = "e-m:e-p270:32:32-p271:32:32-p272:64:64-i64:64-i128:128-f80:128-n8:16:32:64-S128"
target triple = "x86_64-pc-linux-gnu"

%struct.TESTDATA = type { ptr, ptr }

@.str = private unnamed_addr constant [26 x i8] c"../openssl/test/pemtest.c\00", align 1
@b64_pem_data = internal global [2 x %struct.TESTDATA] [%struct.TESTDATA { ptr @.str.20, ptr @.str.21 }, %struct.TESTDATA { ptr @.str.22, ptr @.str.23 }], align 16
@.str.7 = private unnamed_addr constant [2 x i8] c"b\00", align 1
@.str.8 = private unnamed_addr constant [47 x i8] c"BIO_printf(b, \22-----BEGIN %s-----\\n\22, pemtype)\00", align 1
@.str.9 = private unnamed_addr constant [20 x i8] c"-----BEGIN %s-----\0A\00", align 1
@pemtype = internal global ptr @.str.24, align 8
@.str.10 = private unnamed_addr constant [31 x i8] c"BIO_printf(b, \22%s\\n\22, encoded)\00", align 1
@.str.11 = private unnamed_addr constant [4 x i8] c"%s\0A\00", align 1
@.str.12 = private unnamed_addr constant [45 x i8] c"BIO_printf(b, \22-----END %s-----\\n\22, pemtype)\00", align 1
@.str.13 = private unnamed_addr constant [18 x i8] c"-----END %s-----\0A\00", align 1
@.str.14 = private unnamed_addr constant [67 x i8] c"PEM_read_bio_ex(b, &name, &header, &data, &len, PEM_FLAG_ONLY_B64)\00", align 1
@.str.15 = private unnamed_addr constant [39 x i8] c"memcmp(pemtype, name, strlen(pemtype))\00", align 1
@.str.16 = private unnamed_addr constant [2 x i8] c"0\00", align 1
@.str.17 = private unnamed_addr constant [4 x i8] c"len\00", align 1
@.str.18 = private unnamed_addr constant [12 x i8] c"strlen(raw)\00", align 1
@.str.19 = private unnamed_addr constant [31 x i8] c"memcmp(data, raw, strlen(raw))\00", align 1

; Function Attrs: nounwind uwtable
define internal i32 @test_b64(i32 noundef %0) #0 {
  %2 = alloca i32, align 4
  %3 = alloca ptr, align 8
  %4 = alloca ptr, align 8
  %5 = alloca ptr, align 8
  %6 = alloca ptr, align 8
  %7 = alloca i64, align 8
  %8 = alloca i32, align 4
  %9 = alloca ptr, align 8
  %10 = alloca ptr, align 8
  store i32 %0, ptr %2, align 4, !tbaa !9
  call void @llvm.lifetime.start.p0(i64 8, ptr %3) #4
  %11 = call ptr @BIO_s_mem()
  %12 = call ptr @BIO_new(ptr noundef %11)
  store ptr %12, ptr %3, align 8, !tbaa !11
  call void @llvm.lifetime.start.p0(i64 8, ptr %4) #4
  store ptr null, ptr %4, align 8, !tbaa !4
  call void @llvm.lifetime.start.p0(i64 8, ptr %5) #4
  store ptr null, ptr %5, align 8, !tbaa !4
  call void @llvm.lifetime.start.p0(i64 8, ptr %6) #4
  store ptr null, ptr %6, align 8, !tbaa !4
  call void @llvm.lifetime.start.p0(i64 8, ptr %7) #4
  call void @llvm.lifetime.start.p0(i64 4, ptr %8) #4
  store i32 0, ptr %8, align 4, !tbaa !9
  call void @llvm.lifetime.start.p0(i64 8, ptr %9) #4
  %13 = load i32, ptr %2, align 4, !tbaa !9
  %14 = sext i32 %13 to i64
  %15 = getelementptr inbounds [2 x %struct.TESTDATA], ptr @b64_pem_data, i64 0, i64 %14
  %16 = getelementptr inbounds nuw %struct.TESTDATA, ptr %15, i32 0, i32 0
  %17 = load ptr, ptr %16, align 16, !tbaa !13
  store ptr %17, ptr %9, align 8, !tbaa !4
  call void @llvm.lifetime.start.p0(i64 8, ptr %10) #4
  %18 = load i32, ptr %2, align 4, !tbaa !9
  %19 = sext i32 %18 to i64
  %20 = getelementptr inbounds [2 x %struct.TESTDATA], ptr @b64_pem_data, i64 0, i64 %19
  %21 = getelementptr inbounds nuw %struct.TESTDATA, ptr %20, i32 0, i32 1
  %22 = load ptr, ptr %21, align 8, !tbaa !15
  store ptr %22, ptr %10, align 8, !tbaa !4
  %23 = load ptr, ptr %3, align 8, !tbaa !11
  %24 = call i32 @test_ptr(ptr noundef @.str, i32 noundef 43, ptr noundef @.str.7, ptr noundef %23)
  %25 = icmp ne i32 %24, 0
  br i1 %25, label %26, label %57

26:                                               ; preds = %1
  %27 = load ptr, ptr %3, align 8, !tbaa !11
  %28 = load ptr, ptr @pemtype, align 8, !tbaa !4
  %29 = call i32 (ptr, ptr, ...) @BIO_printf(ptr noundef %27, ptr noundef @.str.9, ptr noundef %28)
  %30 = icmp ne i32 %29, 0
  %31 = zext i1 %30 to i32
  %32 = call i32 @test_true(ptr noundef @.str, i32 noundef 44, ptr noundef @.str.8, i32 noundef %31)
  %33 = icmp ne i32 %32, 0
  br i1 %33, label %34, label %57

34:                                               ; preds = %26
  %35 = load ptr, ptr %3, align 8, !tbaa !11
  %36 = load ptr, ptr %10, align 8, !tbaa !4
  %37 = call i32 (ptr, ptr, ...) @BIO_printf(ptr noundef %35, ptr noundef @.str.11, ptr noundef %36)
  %38 = icmp ne i32 %37, 0
  %39 = zext i1 %38 to i32
  %40 = call i32 @test_true(ptr noundef @.str, i32 noundef 45, ptr noundef @.str.10, i32 noundef %39)
  %41 = icmp ne i32 %40, 0
  br i1 %41, label %42, label %57

42:                                               ; preds = %34
  %43 = load ptr, ptr %3, align 8, !tbaa !11
  %44 = load ptr, ptr @pemtype, align 8, !tbaa !4
  %45 = call i32 (ptr, ptr, ...) @BIO_printf(ptr noundef %43, ptr noundef @.str.13, ptr noundef %44)
  %46 = icmp ne i32 %45, 0
  %47 = zext i1 %46 to i32
  %48 = call i32 @test_true(ptr noundef @.str, i32 noundef 46, ptr noundef @.str.12, i32 noundef %47)
  %49 = icmp ne i32 %48, 0
  br i1 %49, label %50, label %57

50:                                               ; preds = %42
  %51 = load ptr, ptr %3, align 8, !tbaa !11
  %52 = call i32 @PEM_read_bio_ex(ptr noundef %51, ptr noundef %4, ptr noundef %5, ptr noundef %6, ptr noundef %7, i32 noundef 4)
  %53 = icmp ne i32 %52, 0
  %54 = zext i1 %53 to i32
  %55 = call i32 @test_true(ptr noundef @.str, i32 noundef 48, ptr noundef @.str.14, i32 noundef %54)
  %56 = icmp ne i32 %55, 0
  br i1 %56, label %58, label %57

57:                                               ; preds = %50, %42, %34, %26, %1
  br label %84

58:                                               ; preds = %50
  %59 = load ptr, ptr @pemtype, align 8, !tbaa !4
  %60 = load ptr, ptr %4, align 8, !tbaa !4
  %61 = load ptr, ptr @pemtype, align 8, !tbaa !4
  %62 = call i64 @strlen(ptr noundef %61) #5
  %63 = call i32 @memcmp(ptr noundef %59, ptr noundef %60, i64 noundef %62) #5
  %64 = call i32 @test_int_eq(ptr noundef @.str, i32 noundef 50, ptr noundef @.str.15, ptr noundef @.str.16, i32 noundef %63, i32 noundef 0)
  %65 = icmp ne i32 %64, 0
  br i1 %65, label %66, label %82

66:                                               ; preds = %58
  %67 = load i64, ptr %7, align 8, !tbaa !16
  %68 = trunc i64 %67 to i32
  %69 = load ptr, ptr %9, align 8, !tbaa !4
  %70 = call i64 @strlen(ptr noundef %69) #5
  %71 = trunc i64 %70 to i32
  %72 = call i32 @test_int_eq(ptr noundef @.str, i32 noundef 51, ptr noundef @.str.17, ptr noundef @.str.18, i32 noundef %68, i32 noundef %71)
  %73 = icmp ne i32 %72, 0
  br i1 %73, label %74, label %82

74:                                               ; preds = %66
  %75 = load ptr, ptr %6, align 8, !tbaa !4
  %76 = load ptr, ptr %9, align 8, !tbaa !4
  %77 = load ptr, ptr %9, align 8, !tbaa !4
  %78 = call i64 @strlen(ptr noundef %77) #5
  %79 = call i32 @memcmp(ptr noundef %75, ptr noundef %76, i64 noundef %78) #5
  %80 = call i32 @test_int_eq(ptr noundef @.str, i32 noundef 52, ptr noundef @.str.19, ptr noundef @.str.16, i32 noundef %79, i32 noundef 0)
  %81 = icmp ne i32 %80, 0
  br i1 %81, label %83, label %82

82:                                               ; preds = %74, %66, %58
  br label %84

83:                                               ; preds = %74
  store i32 1, ptr %8, align 4, !tbaa !9
  br label %84

84:                                               ; preds = %83, %82, %57
  %85 = load ptr, ptr %3, align 8, !tbaa !11
  %86 = call i32 @BIO_free(ptr noundef %85)
  %87 = load ptr, ptr %4, align 8, !tbaa !4
  call void @CRYPTO_free(ptr noundef %87, ptr noundef @.str, i32 noundef 57)
  %88 = load ptr, ptr %5, align 8, !tbaa !4
  call void @CRYPTO_free(ptr noundef %88, ptr noundef @.str, i32 noundef 58)
  %89 = load ptr, ptr %6, align 8, !tbaa !4
  call void @CRYPTO_free(ptr noundef %89, ptr noundef @.str, i32 noundef 59)
  %90 = load i32, ptr %8, align 4, !tbaa !9
  call void @llvm.lifetime.end.p0(i64 8, ptr %10) #4
  call void @llvm.lifetime.end.p0(i64 8, ptr %9) #4
  call void @llvm.lifetime.end.p0(i64 4, ptr %8) #4
  call void @llvm.lifetime.end.p0(i64 8, ptr %7) #4
  call void @llvm.lifetime.end.p0(i64 8, ptr %6) #4
  call void @llvm.lifetime.end.p0(i64 8, ptr %5) #4
  call void @llvm.lifetime.end.p0(i64 8, ptr %4) #4
  call void @llvm.lifetime.end.p0(i64 8, ptr %3) #4
  ret i32 %90
}