; Function Attrs: nounwind uwtable
define internal range(i32 0, 2) i32 @test_b64(i32 noundef %0) #0 {
  %2 = alloca ptr, align 8
  %3 = alloca ptr, align 8
  %4 = alloca ptr, align 8
  %5 = alloca i64, align 8
  %6 = tail call ptr @BIO_s_mem() #4
  %7 = tail call ptr @BIO_new(ptr noundef %6) #4
  call void @llvm.lifetime.start.p0(i64 8, ptr nonnull %2) #4
  store ptr null, ptr %2, align 8, !tbaa !4
  call void @llvm.lifetime.start.p0(i64 8, ptr nonnull %3) #4
  store ptr null, ptr %3, align 8, !tbaa !4
  call void @llvm.lifetime.start.p0(i64 8, ptr nonnull %4) #4
  store ptr null, ptr %4, align 8, !tbaa !4
  call void @llvm.lifetime.start.p0(i64 8, ptr nonnull %5) #4
  %8 = sext i32 %0 to i64
  %9 = getelementptr inbounds [2 x %struct.TESTDATA], ptr @b64_pem_data, i64 0, i64 %8
  %10 = load ptr, ptr %9, align 16, !tbaa !9
  %11 = getelementptr inbounds nuw i8, ptr %9, i64 8
  %12 = load ptr, ptr %11, align 8, !tbaa !11
  %13 = tail call i32 @test_ptr(ptr noundef nonnull @.str, i32 noundef 43, ptr noundef nonnull @.str.7, ptr noundef %7) #4
  %.not = icmp eq i32 %13, 0
  br i1 %.not, label %49, label %14

14:                                               ; preds = %1
  %15 = tail call i32 (ptr, ptr, ...) @BIO_printf(ptr noundef %7, ptr noundef nonnull @.str.9, ptr noundef nonnull @.str.24) #4
  %16 = icmp ne i32 %15, 0
  %17 = zext i1 %16 to i32
  %18 = tail call i32 @test_true(ptr noundef nonnull @.str, i32 noundef 44, ptr noundef nonnull @.str.8, i32 noundef %17) #4
  %.not12 = icmp eq i32 %18, 0
  br i1 %.not12, label %49, label %19

19:                                               ; preds = %14
  %20 = tail call i32 (ptr, ptr, ...) @BIO_printf(ptr noundef %7, ptr noundef nonnull @.str.11, ptr noundef %12) #4
  %21 = icmp ne i32 %20, 0
  %22 = zext i1 %21 to i32
  %23 = tail call i32 @test_true(ptr noundef nonnull @.str, i32 noundef 45, ptr noundef nonnull @.str.10, i32 noundef %22) #4
  %.not13 = icmp eq i32 %23, 0
  br i1 %.not13, label %49, label %24

24:                                               ; preds = %19
  %25 = tail call i32 (ptr, ptr, ...) @BIO_printf(ptr noundef %7, ptr noundef nonnull @.str.13, ptr noundef nonnull @.str.24) #4
  %26 = icmp ne i32 %25, 0
  %27 = zext i1 %26 to i32
  %28 = tail call i32 @test_true(ptr noundef nonnull @.str, i32 noundef 46, ptr noundef nonnull @.str.12, i32 noundef %27) #4
  %.not14 = icmp eq i32 %28, 0
  br i1 %.not14, label %49, label %29

29:                                               ; preds = %24
  %30 = call i32 @PEM_read_bio_ex(ptr noundef %7, ptr noundef nonnull %2, ptr noundef nonnull %3, ptr noundef nonnull %4, ptr noundef nonnull %5, i32 noundef 4) #4
  %31 = icmp ne i32 %30, 0
  %32 = zext i1 %31 to i32
  %33 = call i32 @test_true(ptr noundef nonnull @.str, i32 noundef 48, ptr noundef nonnull @.str.14, i32 noundef %32) #4
  %.not15 = icmp eq i32 %33, 0
  br i1 %.not15, label %49, label %34

34:                                               ; preds = %29
  %35 = load ptr, ptr %2, align 8, !tbaa !4
  %36 = call i32 @memcmp(ptr noundef nonnull dereferenceable(11) @.str.24, ptr noundef nonnull dereferenceable(11) %35, i64 noundef 11) #5
  %37 = call i32 @test_int_eq(ptr noundef nonnull @.str, i32 noundef 50, ptr noundef nonnull @.str.15, ptr noundef nonnull @.str.16, i32 noundef %36, i32 noundef 0) #4
  %.not16 = icmp eq i32 %37, 0
  br i1 %.not16, label %49, label %38

38:                                               ; preds = %34
  %39 = load i64, ptr %5, align 8, !tbaa !12
  %40 = trunc i64 %39 to i32
  %41 = call i64 @strlen(ptr noundef nonnull dereferenceable(1) %10) #5
  %42 = trunc i64 %41 to i32
  %43 = call i32 @test_int_eq(ptr noundef nonnull @.str, i32 noundef 51, ptr noundef nonnull @.str.17, ptr noundef nonnull @.str.18, i32 noundef %40, i32 noundef %42) #4
  %.not17 = icmp eq i32 %43, 0
  br i1 %.not17, label %49, label %44

44:                                               ; preds = %38
  %45 = load ptr, ptr %4, align 8, !tbaa !4
  %46 = call i64 @strlen(ptr noundef nonnull dereferenceable(1) %10) #5
  %47 = call i32 @memcmp(ptr noundef %45, ptr noundef nonnull %10, i64 noundef %46) #5
  %48 = call i32 @test_int_eq(ptr noundef nonnull @.str, i32 noundef 52, ptr noundef nonnull @.str.19, ptr noundef nonnull @.str.16, i32 noundef %47, i32 noundef 0) #4
  %.not18 = icmp ne i32 %48, 0
  %spec.select = zext i1 %.not18 to i32
  br label %49

49:                                               ; preds = %44, %34, %38, %1, %14, %19, %24, %29
  %.0 = phi i32 [ 0, %38 ], [ 0, %34 ], [ 0, %29 ], [ 0, %24 ], [ 0, %19 ], [ 0, %14 ], [ 0, %1 ], [ %spec.select, %44 ]
  %50 = call i32 @BIO_free(ptr noundef %7) #4
  %51 = load ptr, ptr %2, align 8, !tbaa !4
  call void @CRYPTO_free(ptr noundef %51, ptr noundef nonnull @.str, i32 noundef 57) #4
  %52 = load ptr, ptr %3, align 8, !tbaa !4
  call void @CRYPTO_free(ptr noundef %52, ptr noundef nonnull @.str, i32 noundef 58) #4
  %53 = load ptr, ptr %4, align 8, !tbaa !4
  call void @CRYPTO_free(ptr noundef %53, ptr noundef nonnull @.str, i32 noundef 59) #4
  call void @llvm.lifetime.end.p0(i64 8, ptr nonnull %5) #4
  call void @llvm.lifetime.end.p0(i64 8, ptr nonnull %4) #4
  call void @llvm.lifetime.end.p0(i64 8, ptr nonnull %3) #4
  call void @llvm.lifetime.end.p0(i64 8, ptr nonnull %2) #4
  ret i32 %.0
}